target datalayout = "e-m:e-p270:32:32-p271:32:32-p272:64:64-i64:64-i128:128-f80:128-n8:16:32:64-S128"
target triple = "x86_64-pc-linux-gnu"

%struct._object = type { %union.anon, ptr }
%union.anon = type { i64 }
%struct.PyBytesObject = type { %struct.PyVarObject, i64, [1 x i8] }
%struct.PyVarObject = type { %struct._object, i64 }
%struct.fileio = type { %struct._object, i32, i8, i8, ptr, ptr, ptr }
%struct.anon = type { i32, i32 }
%struct.stat = type { i64, i64, i64, i32, i32, i32, i32, i64, i64, i64, i64, %struct.timespec, %struct.timespec, %struct.timespec, [3 x i64] }
%struct.timespec = type { i64, i64 }

@_Py_NoneStruct = external global %struct._object, align 8
@PyExc_ValueError = external global ptr, align 8
@.str.35 = private unnamed_addr constant [29 x i8] c"I/O operation on closed file\00", align 1
@PyExc_OverflowError = external global ptr, align 8
@.str.37 = private unnamed_addr constant [71 x i8] c"unbounded read returned more bytes than a Python bytes object can hold\00", align 1

; Function Attrs: inlinehint nounwind uwtable
define internal i64 @Py_SIZE(ptr noundef %0) #3 {
  %2 = alloca ptr, align 8
  store ptr %0, ptr %2, align 8, !tbaa !4
  %3 = load ptr, ptr %2, align 8, !tbaa !4
  %4 = getelementptr inbounds nuw %struct.PyVarObject, ptr %3, i32 0, i32 1
  %5 = load i64, ptr %4, align 8, !tbaa !69
  ret i64 %5
}

; Function Attrs: alwaysinline nounwind uwtable
define internal i32 @_Py_IsImmortal(ptr noundef %0) #4 {
  %2 = alloca ptr, align 8
  store ptr %0, ptr %2, align 8, !tbaa !4
  %3 = load ptr, ptr %2, align 8, !tbaa !4
  %4 = getelementptr inbounds nuw %struct._object, ptr %3, i32 0, i32 0
  %5 = getelementptr inbounds nuw %struct.anon, ptr %4, i32 0, i32 0
  %6 = load i32, ptr %5, align 8, !tbaa !41
  %7 = icmp slt i32 %6, 0
  %8 = zext i1 %7 to i32
  ret i32 %8
}

; Function Attrs: inlinehint nounwind uwtable
define internal ptr @PyBytes_AS_STRING(ptr noundef %0) #3 {
  %2 = alloca ptr, align 8
  store ptr %0, ptr %2, align 8, !tbaa !4
  %3 = load ptr, ptr %2, align 8, !tbaa !4
  %4 = getelementptr inbounds nuw %struct.PyBytesObject, ptr %3, i32 0, i32 2
  %5 = getelementptr inbounds [1 x i8], ptr %4, i64 0, i64 0
  ret ptr %5
}

; Function Attrs: inlinehint nounwind uwtable
define internal i64 @PyBytes_GET_SIZE(ptr noundef %0) #3 {
  %2 = alloca ptr, align 8
  %3 = alloca ptr, align 8
  store ptr %0, ptr %2, align 8, !tbaa !4
  call void @llvm.lifetime.start.p0(i64 8, ptr %3) #9
  %4 = load ptr, ptr %2, align 8, !tbaa !4
  store ptr %4, ptr %3, align 8, !tbaa !15
  %5 = load ptr, ptr %3, align 8, !tbaa !15
  %6 = call i64 @Py_SIZE(ptr noundef %5)
  call void @llvm.lifetime.end.p0(i64 8, ptr %3) #9
  ret i64 %6
}

; Function Attrs: alwaysinline nounwind uwtable
define internal void @Py_DECREF(ptr noundef %0) #4 {
  %2 = alloca ptr, align 8
  store ptr %0, ptr %2, align 8, !tbaa !4
  %3 = load ptr, ptr %2, align 8, !tbaa !4
  %4 = call i32 @_Py_IsImmortal(ptr noundef %3)
  %5 = icmp ne i32 %4, 0
  br i1 %5, label %6, label %7

6:                                                ; preds = %1
  br label %16

7:                                                ; preds = %1
  %8 = load ptr, ptr %2, align 8, !tbaa !4
  %9 = getelementptr inbounds nuw %struct._object, ptr %8, i32 0, i32 0
  %10 = getelementptr inbounds nuw %struct.anon, ptr %9, i32 0, i32 0
  %11 = load i32, ptr %10, align 8, !tbaa !41
  %12 = add i32 %11, -1
  store i32 %12, ptr %10, align 8, !tbaa !41
  %13 = icmp eq i32 %12, 0
  br i1 %13, label %14, label %16

14:                                               ; preds = %7
  %15 = load ptr, ptr %2, align 8, !tbaa !4
  call void @_Py_Dealloc(ptr noundef %15)
  br label %16

16:                                               ; preds = %6, %14, %7
  ret void
}

; Function Attrs: nounwind uwtable
define internal i64 @new_buffersize(ptr noundef %0, i64 noundef %1) #0 {
  %3 = alloca ptr, align 8
  %4 = alloca i64, align 8
  %5 = alloca i64, align 8
  store ptr %0, ptr %3, align 8, !tbaa !15
  store i64 %1, ptr %4, align 8, !tbaa !35
  call void @llvm.lifetime.start.p0(i64 8, ptr %5) #9
  %6 = load i64, ptr %4, align 8, !tbaa !35
  %7 = icmp ugt i64 %6, 65536
  br i1 %7, label %8, label %11

8:                                                ; preds = %2
  %9 = load i64, ptr %4, align 8, !tbaa !35
  %10 = lshr i64 %9, 3
  store i64 %10, ptr %5, align 8, !tbaa !35
  br label %14

11:                                               ; preds = %2
  %12 = load i64, ptr %4, align 8, !tbaa !35
  %13 = add i64 256, %12
  store i64 %13, ptr %5, align 8, !tbaa !35
  br label %14

14:                                               ; preds = %11, %8
  %15 = load i64, ptr %5, align 8, !tbaa !35
  %16 = icmp ult i64 %15, 8192
  br i1 %16, label %17, label %18

17:                                               ; preds = %14
  store i64 8192, ptr %5, align 8, !tbaa !35
  br label %18

18:                                               ; preds = %17, %14
  %19 = load i64, ptr %5, align 8, !tbaa !35
  %20 = load i64, ptr %4, align 8, !tbaa !35
  %21 = add i64 %19, %20
  call void @llvm.lifetime.end.p0(i64 8, ptr %5) #9
  ret i64 %21
}

; Function Attrs: nounwind uwtable
define internal ptr @err_closed() #0 {
  %1 = load ptr, ptr @PyExc_ValueError, align 8, !tbaa !4
  call void @PyErr_SetString(ptr noundef %1, ptr noundef @.str.35)
  ret ptr null
}

; Function Attrs: nounwind uwtable
define internal ptr @_io_FileIO_readall_impl(ptr noundef %0) #0 {
  %2 = alloca ptr, align 8
  %3 = alloca ptr, align 8
  %4 = alloca i64, align 8
  %5 = alloca i64, align 8
  %6 = alloca ptr, align 8
  %7 = alloca i64, align 8
  %8 = alloca i64, align 8
  %9 = alloca i64, align 8
  %10 = alloca i32, align 4
  %11 = alloca ptr, align 8
  store ptr %0, ptr %3, align 8, !tbaa !15
  call void @llvm.lifetime.start.p0(i64 8, ptr %4) #9
  call void @llvm.lifetime.start.p0(i64 8, ptr %5) #9
  call void @llvm.lifetime.start.p0(i64 8, ptr %6) #9
  call void @llvm.lifetime.start.p0(i64 8, ptr %7) #9
  store i64 0, ptr %7, align 8, !tbaa !35
  call void @llvm.lifetime.start.p0(i64 8, ptr %8) #9
  call void @llvm.lifetime.start.p0(i64 8, ptr %9) #9
  %12 = load ptr, ptr %3, align 8, !tbaa !15
  %13 = getelementptr inbounds nuw %struct.fileio, ptr %12, i32 0, i32 1
  %14 = load i32, ptr %13, align 8, !tbaa !9
  %15 = icmp slt i32 %14, 0
  br i1 %15, label %16, label %18

16:                                               ; preds = %1
  %17 = call ptr @err_closed()
  store ptr %17, ptr %2, align 8
  store i32 1, ptr %10, align 4
  br label %159

18:                                               ; preds = %1
  %19 = load ptr, ptr %3, align 8, !tbaa !15
  %20 = getelementptr inbounds nuw %struct.fileio, ptr %19, i32 0, i32 4
  %21 = load ptr, ptr %20, align 8, !tbaa !17
  %22 = icmp ne ptr %21, null
  br i1 %22, label %23, label %36

23:                                               ; preds = %18
  %24 = load ptr, ptr %3, align 8, !tbaa !15
  %25 = getelementptr inbounds nuw %struct.fileio, ptr %24, i32 0, i32 4
  %26 = load ptr, ptr %25, align 8, !tbaa !17
  %27 = getelementptr inbounds nuw %struct.stat, ptr %26, i32 0, i32 8
  %28 = load i64, ptr %27, align 8, !tbaa !52
  %29 = icmp slt i64 %28, 9223372036854775807
  br i1 %29, label %30, label %36

30:                                               ; preds = %23
  %31 = load ptr, ptr %3, align 8, !tbaa !15
  %32 = getelementptr inbounds nuw %struct.fileio, ptr %31, i32 0, i32 4
  %33 = load ptr, ptr %32, align 8, !tbaa !17
  %34 = getelementptr inbounds nuw %struct.stat, ptr %33, i32 0, i32 8
  %35 = load i64, ptr %34, align 8, !tbaa !52
  store i64 %35, ptr %5, align 8, !tbaa !35
  br label %37

36:                                               ; preds = %23, %18
  store i64 -1, ptr %5, align 8, !tbaa !35
  br label %37

37:                                               ; preds = %36, %30
  %38 = load i64, ptr %5, align 8, !tbaa !35
  %39 = icmp sle i64 %38, 0
  br i1 %39, label %40, label %41

40:                                               ; preds = %37
  store i64 8192, ptr %9, align 8, !tbaa !35
  br label %76

41:                                               ; preds = %37
  %42 = load i64, ptr %5, align 8, !tbaa !35
  %43 = icmp sgt i64 %42, 9223372036854775806
  br i1 %43, label %44, label %45

44:                                               ; preds = %41
  store i64 9223372036854775807, ptr %9, align 8, !tbaa !35
  br label %48

45:                                               ; preds = %41
  %46 = load i64, ptr %5, align 8, !tbaa !35
  %47 = add i64 %46, 1
  store i64 %47, ptr %9, align 8, !tbaa !35
  br label %48

48:                                               ; preds = %45, %44
  %49 = load i64, ptr %9, align 8, !tbaa !35
  %50 = icmp ugt i64 %49, 65536
  br i1 %50, label %51, label %75

51:                                               ; preds = %48
  call void @llvm.lifetime.start.p0(i64 8, ptr %11) #9
  %52 = call ptr @PyEval_SaveThread()
  store ptr %52, ptr %11, align 8, !tbaa !53
  %53 = load ptr, ptr %3, align 8, !tbaa !15
  %54 = getelementptr inbounds nuw %struct.fileio, ptr %53, i32 0, i32 1
  %55 = load i32, ptr %54, align 8, !tbaa !9
  %56 = call i64 @lseek64(i32 noundef %55, i64 noundef 0, i32 noundef 1) #9
  store i64 %56, ptr %4, align 8, !tbaa !35
  %57 = load ptr, ptr %11, align 8, !tbaa !53
  call void @PyEval_RestoreThread(ptr noundef %57)
  call void @llvm.lifetime.end.p0(i64 8, ptr %11) #9
  %58 = load i64, ptr %5, align 8, !tbaa !35
  %59 = load i64, ptr %4, align 8, !tbaa !35
  %60 = icmp sge i64 %58, %59
  br i1 %60, label %61, label %74

61:                                               ; preds = %51
  %62 = load i64, ptr %4, align 8, !tbaa !35
  %63 = icmp sge i64 %62, 0
  br i1 %63, label %64, label %74

64:                                               ; preds = %61
  %65 = load i64, ptr %5, align 8, !tbaa !35
  %66 = load i64, ptr %4, align 8, !tbaa !35
  %67 = sub i64 %65, %66
  %68 = icmp slt i64 %67, 9223372036854775806
  br i1 %68, label %69, label %74

69:                                               ; preds = %64
  %70 = load i64, ptr %5, align 8, !tbaa !35
  %71 = load i64, ptr %4, align 8, !tbaa !35
  %72 = sub i64 %70, %71
  %73 = add i64 %72, 1
  store i64 %73, ptr %9, align 8, !tbaa !35
  br label %74

74:                                               ; preds = %69, %64, %61, %51
  br label %75

75:                                               ; preds = %74, %48
  br label %76

76:                                               ; preds = %75, %40
  %77 = load i64, ptr %9, align 8, !tbaa !35
  %78 = call ptr @PyBytes_FromStringAndSize(ptr noundef null, i64 noundef %77)
  store ptr %78, ptr %6, align 8, !tbaa !4
  %79 = load ptr, ptr %6, align 8, !tbaa !4
  %80 = icmp eq ptr %79, null
  br i1 %80, label %81, label %82

81:                                               ; preds = %76
  store ptr null, ptr %2, align 8
  store i32 1, ptr %10, align 4
  br label %159

82:                                               ; preds = %76
  br label %83

83:                                               ; preds = %142, %82
  br label %84

84:                                               ; preds = %83
  %85 = load i64, ptr %7, align 8, !tbaa !35
  %86 = load i64, ptr %9, align 8, !tbaa !35
  %87 = icmp sge i64 %85, %86
  br i1 %87, label %88, label %112

88:                                               ; preds = %84
  %89 = load ptr, ptr %3, align 8, !tbaa !15
  %90 = load i64, ptr %7, align 8, !tbaa !35
  %91 = call i64 @new_buffersize(ptr noundef %89, i64 noundef %90)
  store i64 %91, ptr %9, align 8, !tbaa !35
  %92 = load i64, ptr %9, align 8, !tbaa !35
  %93 = icmp ugt i64 %92, 9223372036854775807
  br i1 %93, label %97, label %94

94:                                               ; preds = %88
  %95 = load i64, ptr %9, align 8, !tbaa !35
  %96 = icmp ule i64 %95, 0
  br i1 %96, label %97, label %100

97:                                               ; preds = %94, %88
  %98 = load ptr, ptr @PyExc_OverflowError, align 8, !tbaa !4
  call void @PyErr_SetString(ptr noundef %98, ptr noundef @.str.37)
  %99 = load ptr, ptr %6, align 8, !tbaa !4
  call void @Py_DECREF(ptr noundef %99)
  store ptr null, ptr %2, align 8
  store i32 1, ptr %10, align 4
  br label %159

100:                                              ; preds = %94
  %101 = load ptr, ptr %6, align 8, !tbaa !4
  %102 = call i64 @PyBytes_GET_SIZE(ptr noundef %101)
  %103 = load i64, ptr %9, align 8, !tbaa !35
  %104 = icmp slt i64 %102, %103
  br i1 %104, label %105, label %111

105:                                              ; preds = %100
  %106 = load i64, ptr %9, align 8, !tbaa !35
  %107 = call i32 @_PyBytes_Resize(ptr noundef %6, i64 noundef %106)
  %108 = icmp slt i32 %107, 0
  br i1 %108, label %109, label %110

109:                                              ; preds = %105
  store ptr null, ptr %2, align 8
  store i32 1, ptr %10, align 4
  br label %159

110:                                              ; preds = %105
  br label %111

111:                                              ; preds = %110, %100
  br label %112

112:                                              ; preds = %111, %84
  %113 = load ptr, ptr %3, align 8, !tbaa !15
  %114 = getelementptr inbounds nuw %struct.fileio, ptr %113, i32 0, i32 1
  %115 = load i32, ptr %114, align 8, !tbaa !9
  %116 = load ptr, ptr %6, align 8, !tbaa !4
  %117 = call ptr @PyBytes_AS_STRING(ptr noundef %116)
  %118 = load i64, ptr %7, align 8, !tbaa !35
  %119 = getelementptr i8, ptr %117, i64 %118
  %120 = load i64, ptr %9, align 8, !tbaa !35
  %121 = load i64, ptr %7, align 8, !tbaa !35
  %122 = sub i64 %120, %121
  %123 = call i64 @_Py_read(i32 noundef %115, ptr noundef %119, i64 noundef %122)
  store i64 %123, ptr %8, align 8, !tbaa !35
  %124 = load i64, ptr %8, align 8, !tbaa !35
  %125 = icmp eq i64 %124, 0
  br i1 %125, label %126, label %127

126:                                              ; preds = %112
  br label %146

127:                                              ; preds = %112
  %128 = load i64, ptr %8, align 8, !tbaa !35
  %129 = icmp eq i64 %128, -1
  br i1 %129, label %130, label %142

130:                                              ; preds = %127
  %131 = call ptr @__errno_location() #11
  %132 = load i32, ptr %131, align 4, !tbaa !31
  %133 = icmp eq i32 %132, 11
  br i1 %133, label %134, label %140

134:                                              ; preds = %130
  call void @PyErr_Clear()
  %135 = load i64, ptr %7, align 8, !tbaa !35
  %136 = icmp sgt i64 %135, 0
  br i1 %136, label %137, label %138

137:                                              ; preds = %134
  br label %146

138:                                              ; preds = %134
  %139 = load ptr, ptr %6, align 8, !tbaa !4
  call void @Py_DECREF(ptr noundef %139)
  store ptr @_Py_NoneStruct, ptr %2, align 8
  store i32 1, ptr %10, align 4
  br label %159

140:                                              ; preds = %130
  %141 = load ptr, ptr %6, align 8, !tbaa !4
  call void @Py_DECREF(ptr noundef %141)
  store ptr null, ptr %2, align 8
  store i32 1, ptr %10, align 4
  br label %159

142:                                              ; preds = %127
  %143 = load i64, ptr %8, align 8, !tbaa !35
  %144 = load i64, ptr %7, align 8, !tbaa !35
  %145 = add i64 %144, %143
  store i64 %145, ptr %7, align 8, !tbaa !35
  br label %83

146:                                              ; preds = %137, %126
  %147 = load ptr, ptr %6, align 8, !tbaa !4
  %148 = call i64 @PyBytes_GET_SIZE(ptr noundef %147)
  %149 = load i64, ptr %7, align 8, !tbaa !35
  %150 = icmp sgt i64 %148, %149
  br i1 %150, label %151, label %157

151:                                              ; preds = %146
  %152 = load i64, ptr %7, align 8, !tbaa !35
  %153 = call i32 @_PyBytes_Resize(ptr noundef %6, i64 noundef %152)
  %154 = icmp slt i32 %153, 0
  br i1 %154, label %155, label %156

155:                                              ; preds = %151
  store ptr null, ptr %2, align 8
  store i32 1, ptr %10, align 4
  br label %159

156:                                              ; preds = %151
  br label %157

157:                                              ; preds = %156, %146
  %158 = load ptr, ptr %6, align 8, !tbaa !4
  store ptr %158, ptr %2, align 8
  store i32 1, ptr %10, align 4
  br label %159

159:                                              ; preds = %157, %155, %140, %138, %109, %97, %81, %16
  call void @llvm.lifetime.end.p0(i64 8, ptr %9) #9
  call void @llvm.lifetime.end.p0(i64 8, ptr %8) #9
  call void @llvm.lifetime.end.p0(i64 8, ptr %7) #9
  call void @llvm.lifetime.end.p0(i64 8, ptr %6) #9
  call void @llvm.lifetime.end.p0(i64 8, ptr %5) #9
  call void @llvm.lifetime.end.p0(i64 8, ptr %4) #9
  %160 = load ptr, ptr %2, align 8
  ret ptr %160
}