; Function Attrs: nounwind uwtable
define internal fastcc ptr @_io_FileIO_readall_impl(ptr noundef readonly captures(none) %0) unnamed_addr #1 {
  %2 = alloca ptr, align 8
  call void @llvm.lifetime.start.p0(i64 8, ptr nonnull %2) #10
  %3 = getelementptr inbounds nuw i8, ptr %0, i64 16
  %4 = load i32, ptr %3, align 8, !tbaa !4
  %5 = icmp slt i32 %4, 0
  br i1 %5, label %6, label %8

6:                                                ; preds = %1
  %7 = load ptr, ptr @PyExc_ValueError, align 8, !tbaa !21
  tail call void @PyErr_SetString(ptr noundef %7, ptr noundef nonnull @.str.35) #10
  br label %Py_DECREF.exit54

8:                                                ; preds = %1
  %9 = getelementptr inbounds nuw i8, ptr %0, i64 24
  %10 = load ptr, ptr %9, align 8, !tbaa !19
  %.not = icmp eq ptr %10, null
  br i1 %.not, label %.thread, label %11

11:                                               ; preds = %8
  %12 = getelementptr inbounds nuw i8, ptr %10, i64 48
  %13 = load i64, ptr %12, align 8, !tbaa !66
  %14 = add i64 %13, -9223372036854775807
  %or.cond = icmp ult i64 %14, -9223372036854775806
  br i1 %or.cond, label %.thread, label %15

15:                                               ; preds = %11
  %16 = add nuw nsw i64 %13, 1
  %17 = icmp samesign ugt i64 %13, 65535
  br i1 %17, label %18, label %.thread

18:                                               ; preds = %15
  %19 = tail call ptr @PyEval_SaveThread() #10
  %20 = load i32, ptr %3, align 8, !tbaa !4
  %21 = tail call i64 @lseek64(i32 noundef %20, i64 noundef 0, i32 noundef 1) #10
  tail call void @PyEval_RestoreThread(ptr noundef %19) #10
  %or.cond.not = icmp ugt i64 %21, %13
  br i1 %or.cond.not, label %.thread, label %22

22:                                               ; preds = %18
  %23 = sub nuw nsw i64 %13, %21
  %24 = icmp samesign ult i64 %23, 9223372036854775806
  %25 = add nuw nsw i64 %23, 1
  %spec.select = select i1 %24, i64 %25, i64 %16
  br label %.thread

.thread:                                          ; preds = %11, %8, %22, %15, %18
  %.040 = phi i64 [ %16, %18 ], [ %16, %15 ], [ %spec.select, %22 ], [ 8192, %8 ], [ 8192, %11 ]
  %26 = tail call ptr @PyBytes_FromStringAndSize(ptr noundef null, i64 noundef %.040) #10
  store ptr %26, ptr %2, align 8, !tbaa !21
  %27 = icmp eq ptr %26, null
  br i1 %27, label %Py_DECREF.exit54, label %.preheader

.preheader:                                       ; preds = %.thread, %75
  %.042 = phi i64 [ %76, %75 ], [ 0, %.thread ]
  %.2 = phi i64 [ %.3, %75 ], [ %.040, %.thread ]
  %.not50 = icmp slt i64 %.042, %.2
  br i1 %.not50, label %48, label %28

28:                                               ; preds = %.preheader
  %29 = icmp ugt i64 %.042, 65536
  %30 = lshr i64 %.042, 3
  %31 = add nuw nsw i64 %.042, 256
  %.0.i = select i1 %29, i64 %30, i64 %31
  %spec.store.select.i = call i64 @llvm.umax.i64(i64 %.0.i, i64 8192)
  %32 = add i64 %spec.store.select.i, %.042
  %or.cond3 = icmp slt i64 %32, 1
  br i1 %or.cond3, label %33, label %41

33:                                               ; preds = %28
  %34 = load ptr, ptr @PyExc_OverflowError, align 8, !tbaa !21
  call void @PyErr_SetString(ptr noundef %34, ptr noundef nonnull @.str.37) #10
  %35 = load ptr, ptr %2, align 8, !tbaa !21
  %36 = load i32, ptr %35, align 8, !tbaa !22
  %.not.i53 = icmp sgt i32 %36, -1
  br i1 %.not.i53, label %37, label %Py_DECREF.exit54

37:                                               ; preds = %33
  %38 = add nsw i32 %36, -1
  store i32 %38, ptr %35, align 8, !tbaa !22
  %39 = icmp eq i32 %38, 0
  br i1 %39, label %40, label %Py_DECREF.exit54

40:                                               ; preds = %37
  call void @_Py_Dealloc(ptr noundef nonnull %35) #10
  br label %Py_DECREF.exit54

41:                                               ; preds = %28
  %42 = load ptr, ptr %2, align 8, !tbaa !21
  %43 = getelementptr i8, ptr %42, i64 16
  %.val = load i64, ptr %43, align 8, !tbaa !34
  %44 = icmp slt i64 %.val, %32
  br i1 %44, label %45, label %48

45:                                               ; preds = %41
  %46 = call i32 @_PyBytes_Resize(ptr noundef nonnull %2, i64 noundef %32) #10
  %47 = icmp slt i32 %46, 0
  br i1 %47, label %Py_DECREF.exit54, label %48

48:                                               ; preds = %41, %45, %.preheader
  %.3 = phi i64 [ %32, %45 ], [ %32, %41 ], [ %.2, %.preheader ]
  %49 = load i32, ptr %3, align 8, !tbaa !4
  %50 = load ptr, ptr %2, align 8, !tbaa !21
  %51 = getelementptr inbounds nuw i8, ptr %50, i64 32
  %52 = getelementptr i8, ptr %51, i64 %.042
  %53 = sub i64 %.3, %.042
  %54 = call i64 @_Py_read(i32 noundef %49, ptr noundef %52, i64 noundef %53) #10
  switch i64 %54, label %75 [
    i64 0, label %.loopexit
    i64 -1, label %55
  ]

55:                                               ; preds = %48
  %56 = tail call ptr @__errno_location() #12
  %57 = load i32, ptr %56, align 4, !tbaa !43
  %58 = icmp eq i32 %57, 11
  br i1 %58, label %59, label %68

59:                                               ; preds = %55
  call void @PyErr_Clear() #10
  %60 = icmp sgt i64 %.042, 0
  br i1 %60, label %.loopexit, label %61

61:                                               ; preds = %59
  %62 = load ptr, ptr %2, align 8, !tbaa !21
  %63 = load i32, ptr %62, align 8, !tbaa !22
  %.not.i51 = icmp sgt i32 %63, -1
  br i1 %.not.i51, label %64, label %Py_DECREF.exit54

64:                                               ; preds = %61
  %65 = add nsw i32 %63, -1
  store i32 %65, ptr %62, align 8, !tbaa !22
  %66 = icmp eq i32 %65, 0
  br i1 %66, label %67, label %Py_DECREF.exit54

67:                                               ; preds = %64
  call void @_Py_Dealloc(ptr noundef nonnull %62) #10
  br label %Py_DECREF.exit54

68:                                               ; preds = %55
  %69 = load ptr, ptr %2, align 8, !tbaa !21
  %70 = load i32, ptr %69, align 8, !tbaa !22
  %.not.i = icmp sgt i32 %70, -1
  br i1 %.not.i, label %71, label %Py_DECREF.exit54

71:                                               ; preds = %68
  %72 = add nsw i32 %70, -1
  store i32 %72, ptr %69, align 8, !tbaa !22
  %73 = icmp eq i32 %72, 0
  br i1 %73, label %74, label %Py_DECREF.exit54

74:                                               ; preds = %71
  call void @_Py_Dealloc(ptr noundef nonnull %69) #10
  br label %Py_DECREF.exit54

75:                                               ; preds = %48
  %76 = add i64 %54, %.042
  br label %.preheader

.loopexit:                                        ; preds = %48, %59
  %77 = load ptr, ptr %2, align 8, !tbaa !21
  %78 = getelementptr i8, ptr %77, i64 16
  %.val57 = load i64, ptr %78, align 8, !tbaa !34
  %79 = icmp sgt i64 %.val57, %.042
  br i1 %79, label %80, label %Py_DECREF.exit54

80:                                               ; preds = %.loopexit
  %81 = call i32 @_PyBytes_Resize(ptr noundef nonnull %2, i64 noundef %.042) #10
  %82 = icmp slt i32 %81, 0
  %.pre = load ptr, ptr %2, align 8
  %spec.select71 = select i1 %82, ptr null, ptr %.pre
  br label %Py_DECREF.exit54

Py_DECREF.exit54:                                 ; preds = %45, %80, %.loopexit, %74, %71, %68, %67, %64, %61, %40, %37, %33, %.thread, %6
  %.0 = phi ptr [ null, %6 ], [ null, %.thread ], [ null, %33 ], [ null, %37 ], [ null, %40 ], [ @_Py_NoneStruct, %61 ], [ @_Py_NoneStruct, %64 ], [ @_Py_NoneStruct, %67 ], [ null, %68 ], [ null, %71 ], [ null, %74 ], [ %77, %.loopexit ], [ %spec.select71, %80 ], [ null, %45 ]
  call void @llvm.lifetime.end.p0(i64 8, ptr nonnull %2) #10
  ret ptr %.0
}